#include <math.h>
#include <stdio.h>
#include <stdlib.h>
#include <string.h>


int ss(int a)
{
	for(int i=2;i<a;i++)
	{
		if(a%i==0)
		return 1;
	}
	return 0;
}

main()
{
	int n;
	scanf("%d",&n);
	if(n<5)
	printf("empty");
	else
	{
		for(int i=2;i<=n-2;i++)
		{
			if(ss(i)==0 && ss(i+2)==0)
			printf("%d %d\n",i,i+2);
		}
	}
}